; Function Attrs: nounwind uwtable
define void @lv_image_get_pivot(ptr noundef readonly captures(address_is_null) %0, ptr noundef writeonly captures(none) %1) local_unnamed_addr #0 {
  %.not = icmp eq ptr %0, null
  br i1 %.not, label %.preheader, label %3

.preheader:                                       ; preds = %2, %.preheader
  br label %.preheader

3:                                                ; preds = %2
  %4 = getelementptr inbounds nuw i8, ptr %0, i64 108
  %5 = load i32, ptr %4, align 4, !tbaa !22
  %6 = getelementptr inbounds nuw i8, ptr %0, i64 88
  %7 = load i32, ptr %6, align 8, !tbaa !17
  %8 = tail call i32 @lv_pct_to_px(i32 noundef %5, i32 noundef %7) #6
  store i32 %8, ptr %1, align 4, !tbaa !23
  %9 = getelementptr inbounds nuw i8, ptr %0, i64 112
  %10 = load i32, ptr %9, align 4, !tbaa !24
  %11 = getelementptr inbounds nuw i8, ptr %0, i64 92
  %12 = load i32, ptr %11, align 4, !tbaa !18
  %13 = tail call i32 @lv_pct_to_px(i32 noundef %10, i32 noundef %12) #6
  %14 = getelementptr inbounds nuw i8, ptr %1, i64 4
  store i32 %13, ptr %14, align 4, !tbaa !25
  ret void
}